target datalayout = "e-m:e-p270:32:32-p271:32:32-p272:64:64-i64:64-i128:128-f80:128-n8:16:32:64-S128"
target triple = "x86_64-pc-linux-gnu"

%struct.AVFilterContext = type { ptr, ptr, ptr, ptr, ptr, i32, ptr, ptr, i32, ptr, ptr, i32, i32, ptr, ptr, ptr, ptr, i32, ptr, i32, i32 }
%struct.DRMeterContext = type { ptr, ptr, i32, i64, double }
%struct.AVFilterLink = type { ptr, ptr, ptr, ptr, i32, i32, i32, i32, %struct.AVRational, i32, i32, i32, %struct.AVChannelLayout, %struct.AVRational, ptr, i32, %struct.AVFilterFormatsConfig, %struct.AVFilterFormatsConfig }
%struct.AVChannelLayout = type { i32, i32, %union.anon.1, ptr }
%union.anon.1 = type { i64 }
%struct.AVRational = type { i32, i32 }
%struct.AVFilterFormatsConfig = type { ptr, ptr, ptr, ptr, ptr }
%struct.ChannelStats = type { i64, i64, float, float, [32769 x i32], [32769 x i32] }
%struct.AVFrame = type { [8 x ptr], [8 x i32], ptr, i32, i32, i32, i32, i32, %struct.AVRational, i64, i64, %struct.AVRational, i32, ptr, i32, i32, [8 x ptr], ptr, i32, ptr, i32, i32, i32, i32, i32, i32, i32, i64, ptr, i32, ptr, ptr, i64, i64, i64, i64, ptr, %struct.AVChannelLayout, i64 }

; Function Attrs: alwaysinline nounwind willreturn memory(none) uwtable
define internal i32 @av_clip_c(i32 noundef %0, i32 noundef %1, i32 noundef %2) #5 {
  %4 = alloca i32, align 4
  %5 = alloca i32, align 4
  %6 = alloca i32, align 4
  %7 = alloca i32, align 4
  store i32 %0, ptr %5, align 4, !tbaa !41
  store i32 %1, ptr %6, align 4, !tbaa !41
  store i32 %2, ptr %7, align 4, !tbaa !41
  %8 = load i32, ptr %5, align 4, !tbaa !41
  %9 = load i32, ptr %6, align 4, !tbaa !41
  %10 = icmp slt i32 %8, %9
  br i1 %10, label %11, label %13

11:                                               ; preds = %3
  %12 = load i32, ptr %6, align 4, !tbaa !41
  store i32 %12, ptr %4, align 4
  br label %21

13:                                               ; preds = %3
  %14 = load i32, ptr %5, align 4, !tbaa !41
  %15 = load i32, ptr %7, align 4, !tbaa !41
  %16 = icmp sgt i32 %14, %15
  br i1 %16, label %17, label %19

17:                                               ; preds = %13
  %18 = load i32, ptr %7, align 4, !tbaa !41
  store i32 %18, ptr %4, align 4
  br label %21

19:                                               ; preds = %13
  %20 = load i32, ptr %5, align 4, !tbaa !41
  store i32 %20, ptr %4, align 4
  br label %21

21:                                               ; preds = %19, %17, %11
  %22 = load i32, ptr %4, align 4
  ret i32 %22
}

; Function Attrs: nounwind uwtable
define internal void @finish_block(ptr noundef %0) #1 {
  %2 = alloca ptr, align 8
  %3 = alloca i32, align 4
  %4 = alloca i32, align 4
  %5 = alloca float, align 4
  %6 = alloca float, align 4
  store ptr %0, ptr %2, align 8, !tbaa !44
  call void @llvm.lifetime.start.p0(i64 4, ptr %3) #6
  call void @llvm.lifetime.start.p0(i64 4, ptr %4) #6
  call void @llvm.lifetime.start.p0(i64 4, ptr %5) #6
  call void @llvm.lifetime.start.p0(i64 4, ptr %6) #6
  %7 = load ptr, ptr %2, align 8, !tbaa !44
  %8 = getelementptr inbounds nuw %struct.ChannelStats, ptr %7, i32 0, i32 3
  %9 = load float, ptr %8, align 4, !tbaa !64
  %10 = fmul nsz float 2.000000e+00, %9
  %11 = load ptr, ptr %2, align 8, !tbaa !44
  %12 = getelementptr inbounds nuw %struct.ChannelStats, ptr %11, i32 0, i32 0
  %13 = load i64, ptr %12, align 8, !tbaa !65
  %14 = uitofp i64 %13 to float
  %15 = fdiv nsz float %10, %14
  %16 = call nsz float @llvm.sqrt.f32(float %15)
  store float %16, ptr %6, align 4, !tbaa !54
  %17 = load ptr, ptr %2, align 8, !tbaa !44
  %18 = getelementptr inbounds nuw %struct.ChannelStats, ptr %17, i32 0, i32 2
  %19 = load float, ptr %18, align 8, !tbaa !62
  store float %19, ptr %5, align 4, !tbaa !54
  %20 = load float, ptr %6, align 4, !tbaa !54
  %21 = fmul nsz float %20, 3.276800e+04
  %22 = call i64 @llvm.lrint.i64.f32(float %21)
  %23 = trunc i64 %22 to i32
  %24 = call i32 @av_clip_c(i32 noundef %23, i32 noundef 0, i32 noundef 32768) #7
  store i32 %24, ptr %4, align 4, !tbaa !41
  %25 = load float, ptr %5, align 4, !tbaa !54
  %26 = fmul nsz float %25, 3.276800e+04
  %27 = call i64 @llvm.lrint.i64.f32(float %26)
  %28 = trunc i64 %27 to i32
  %29 = call i32 @av_clip_c(i32 noundef %28, i32 noundef 0, i32 noundef 32768) #7
  store i32 %29, ptr %3, align 4, !tbaa !41
  %30 = load ptr, ptr %2, align 8, !tbaa !44
  %31 = getelementptr inbounds nuw %struct.ChannelStats, ptr %30, i32 0, i32 5
  %32 = load i32, ptr %4, align 4, !tbaa !41
  %33 = sext i32 %32 to i64
  %34 = getelementptr inbounds [32769 x i32], ptr %31, i64 0, i64 %33
  %35 = load i32, ptr %34, align 4, !tbaa !41
  %36 = add i32 %35, 1
  store i32 %36, ptr %34, align 4, !tbaa !41
  %37 = load ptr, ptr %2, align 8, !tbaa !44
  %38 = getelementptr inbounds nuw %struct.ChannelStats, ptr %37, i32 0, i32 4
  %39 = load i32, ptr %3, align 4, !tbaa !41
  %40 = sext i32 %39 to i64
  %41 = getelementptr inbounds [32769 x i32], ptr %38, i64 0, i64 %40
  %42 = load i32, ptr %41, align 4, !tbaa !41
  %43 = add i32 %42, 1
  store i32 %43, ptr %41, align 4, !tbaa !41
  %44 = load ptr, ptr %2, align 8, !tbaa !44
  %45 = getelementptr inbounds nuw %struct.ChannelStats, ptr %44, i32 0, i32 2
  store float 0.000000e+00, ptr %45, align 8, !tbaa !62
  %46 = load ptr, ptr %2, align 8, !tbaa !44
  %47 = getelementptr inbounds nuw %struct.ChannelStats, ptr %46, i32 0, i32 3
  store float 0.000000e+00, ptr %47, align 4, !tbaa !64
  %48 = load ptr, ptr %2, align 8, !tbaa !44
  %49 = getelementptr inbounds nuw %struct.ChannelStats, ptr %48, i32 0, i32 0
  store i64 0, ptr %49, align 8, !tbaa !65
  %50 = load ptr, ptr %2, align 8, !tbaa !44
  %51 = getelementptr inbounds nuw %struct.ChannelStats, ptr %50, i32 0, i32 1
  %52 = load i64, ptr %51, align 8, !tbaa !67
  %53 = add i64 %52, 1
  store i64 %53, ptr %51, align 8, !tbaa !67
  call void @llvm.lifetime.end.p0(i64 4, ptr %6) #6
  call void @llvm.lifetime.end.p0(i64 4, ptr %5) #6
  call void @llvm.lifetime.end.p0(i64 4, ptr %4) #6
  call void @llvm.lifetime.end.p0(i64 4, ptr %3) #6
  ret void
}

; Function Attrs: nounwind uwtable
define internal void @update_stat(ptr noundef %0, ptr noundef %1, float noundef %2) #1 {
  %4 = alloca ptr, align 8
  %5 = alloca ptr, align 8
  %6 = alloca float, align 4
  store ptr %0, ptr %4, align 8, !tbaa !22
  store ptr %1, ptr %5, align 8, !tbaa !44
  store float %2, ptr %6, align 4, !tbaa !54
  %7 = load float, ptr %6, align 4, !tbaa !54
  %8 = call nsz float @llvm.fabs.f32(float %7)
  %9 = load ptr, ptr %5, align 8, !tbaa !44
  %10 = getelementptr inbounds nuw %struct.ChannelStats, ptr %9, i32 0, i32 2
  %11 = load float, ptr %10, align 8, !tbaa !62
  %12 = call nsz float @llvm.maxnum.f32(float %8, float %11)
  %13 = load ptr, ptr %5, align 8, !tbaa !44
  %14 = getelementptr inbounds nuw %struct.ChannelStats, ptr %13, i32 0, i32 2
  store float %12, ptr %14, align 8, !tbaa !62
  %15 = load float, ptr %6, align 4, !tbaa !54
  %16 = load float, ptr %6, align 4, !tbaa !54
  %17 = load ptr, ptr %5, align 8, !tbaa !44
  %18 = getelementptr inbounds nuw %struct.ChannelStats, ptr %17, i32 0, i32 3
  %19 = load float, ptr %18, align 4, !tbaa !64
  %20 = call nsz float @llvm.fmuladd.f32(float %15, float %16, float %19)
  store float %20, ptr %18, align 4, !tbaa !64
  %21 = load ptr, ptr %5, align 8, !tbaa !44
  %22 = getelementptr inbounds nuw %struct.ChannelStats, ptr %21, i32 0, i32 0
  %23 = load i64, ptr %22, align 8, !tbaa !65
  %24 = add i64 %23, 1
  store i64 %24, ptr %22, align 8, !tbaa !65
  %25 = load ptr, ptr %5, align 8, !tbaa !44
  %26 = getelementptr inbounds nuw %struct.ChannelStats, ptr %25, i32 0, i32 0
  %27 = load i64, ptr %26, align 8, !tbaa !65
  %28 = load ptr, ptr %4, align 8, !tbaa !22
  %29 = getelementptr inbounds nuw %struct.DRMeterContext, ptr %28, i32 0, i32 3
  %30 = load i64, ptr %29, align 8, !tbaa !66
  %31 = icmp uge i64 %27, %30
  br i1 %31, label %32, label %34

32:                                               ; preds = %3
  %33 = load ptr, ptr %5, align 8, !tbaa !44
  call void @finish_block(ptr noundef %33)
  br label %34

34:                                               ; preds = %32, %3
  ret void
}

; Function Attrs: nounwind uwtable
define internal i32 @filter_frame(ptr noundef %0, ptr noundef %1) #1 {
  %3 = alloca ptr, align 8
  %4 = alloca ptr, align 8
  %5 = alloca ptr, align 8
  %6 = alloca i32, align 4
  %7 = alloca i32, align 4
  %8 = alloca i32, align 4
  %9 = alloca ptr, align 8
  %10 = alloca ptr, align 8
  %11 = alloca i32, align 4
  %12 = alloca ptr, align 8
  %13 = alloca i32, align 4
  %14 = alloca i32, align 4
  store ptr %0, ptr %3, align 8, !tbaa !29
  store ptr %1, ptr %4, align 8, !tbaa !31
  call void @llvm.lifetime.start.p0(i64 8, ptr %5) #6
  %15 = load ptr, ptr %3, align 8, !tbaa !29
  %16 = getelementptr inbounds nuw %struct.AVFilterLink, ptr %15, i32 0, i32 2
  %17 = load ptr, ptr %16, align 8, !tbaa !33
  %18 = getelementptr inbounds nuw %struct.AVFilterContext, ptr %17, i32 0, i32 9
  %19 = load ptr, ptr %18, align 8, !tbaa !9
  store ptr %19, ptr %5, align 8, !tbaa !22
  call void @llvm.lifetime.start.p0(i64 4, ptr %6) #6
  %20 = load ptr, ptr %5, align 8, !tbaa !22
  %21 = getelementptr inbounds nuw %struct.DRMeterContext, ptr %20, i32 0, i32 2
  %22 = load i32, ptr %21, align 8, !tbaa !24
  store i32 %22, ptr %6, align 4, !tbaa !41
  %23 = load ptr, ptr %3, align 8, !tbaa !29
  %24 = getelementptr inbounds nuw %struct.AVFilterLink, ptr %23, i32 0, i32 5
  %25 = load i32, ptr %24, align 4, !tbaa !42
  switch i32 %25, label %107 [
    i32 8, label %26
    i32 3, label %68
  ]

26:                                               ; preds = %2
  call void @llvm.lifetime.start.p0(i64 4, ptr %7) #6
  store i32 0, ptr %7, align 4, !tbaa !41
  br label %27

27:                                               ; preds = %64, %26
  %28 = load i32, ptr %7, align 4, !tbaa !41
  %29 = load i32, ptr %6, align 4, !tbaa !41
  %30 = icmp slt i32 %28, %29
  br i1 %30, label %32, label %31

31:                                               ; preds = %27
  store i32 3, ptr %8, align 4
  call void @llvm.lifetime.end.p0(i64 4, ptr %7) #6
  br label %67

32:                                               ; preds = %27
  call void @llvm.lifetime.start.p0(i64 8, ptr %9) #6
  %33 = load ptr, ptr %5, align 8, !tbaa !22
  %34 = getelementptr inbounds nuw %struct.DRMeterContext, ptr %33, i32 0, i32 1
  %35 = load ptr, ptr %34, align 8, !tbaa !43
  %36 = load i32, ptr %7, align 4, !tbaa !41
  %37 = sext i32 %36 to i64
  %38 = getelementptr inbounds %struct.ChannelStats, ptr %35, i64 %37
  store ptr %38, ptr %9, align 8, !tbaa !44
  call void @llvm.lifetime.start.p0(i64 8, ptr %10) #6
  %39 = load ptr, ptr %4, align 8, !tbaa !31
  %40 = getelementptr inbounds nuw %struct.AVFrame, ptr %39, i32 0, i32 2
  %41 = load ptr, ptr %40, align 8, !tbaa !45
  %42 = load i32, ptr %7, align 4, !tbaa !41
  %43 = sext i32 %42 to i64
  %44 = getelementptr inbounds ptr, ptr %41, i64 %43
  %45 = load ptr, ptr %44, align 8, !tbaa !50
  store ptr %45, ptr %10, align 8, !tbaa !51
  call void @llvm.lifetime.start.p0(i64 4, ptr %11) #6
  store i32 0, ptr %11, align 4, !tbaa !41
  br label %46

46:                                               ; preds = %58, %32
  %47 = load i32, ptr %11, align 4, !tbaa !41
  %48 = load ptr, ptr %4, align 8, !tbaa !31
  %49 = getelementptr inbounds nuw %struct.AVFrame, ptr %48, i32 0, i32 5
  %50 = load i32, ptr %49, align 8, !tbaa !53
  %51 = icmp slt i32 %47, %50
  br i1 %51, label %53, label %52

52:                                               ; preds = %46
  store i32 6, ptr %8, align 4
  call void @llvm.lifetime.end.p0(i64 4, ptr %11) #6
  br label %63

53:                                               ; preds = %46
  %54 = load ptr, ptr %5, align 8, !tbaa !22
  %55 = load ptr, ptr %9, align 8, !tbaa !44
  %56 = load ptr, ptr %10, align 8, !tbaa !51
  %57 = load float, ptr %56, align 4, !tbaa !54
  call void @update_stat(ptr noundef %54, ptr noundef %55, float noundef %57)
  br label %58

58:                                               ; preds = %53
  %59 = load i32, ptr %11, align 4, !tbaa !41
  %60 = add nsw i32 %59, 1
  store i32 %60, ptr %11, align 4, !tbaa !41
  %61 = load ptr, ptr %10, align 8, !tbaa !51
  %62 = getelementptr inbounds nuw float, ptr %61, i32 1
  store ptr %62, ptr %10, align 8, !tbaa !51
  br label %46, !llvm.loop !56

63:                                               ; preds = %52
  call void @llvm.lifetime.end.p0(i64 8, ptr %10) #6
  call void @llvm.lifetime.end.p0(i64 8, ptr %9) #6
  br label %64

64:                                               ; preds = %63
  %65 = load i32, ptr %7, align 4, !tbaa !41
  %66 = add nsw i32 %65, 1
  store i32 %66, ptr %7, align 4, !tbaa !41
  br label %27, !llvm.loop !58

67:                                               ; preds = %31
  br label %107

68:                                               ; preds = %2
  call void @llvm.lifetime.start.p0(i64 8, ptr %12) #6
  %69 = load ptr, ptr %4, align 8, !tbaa !31
  %70 = getelementptr inbounds nuw %struct.AVFrame, ptr %69, i32 0, i32 2
  %71 = load ptr, ptr %70, align 8, !tbaa !45
  %72 = getelementptr inbounds ptr, ptr %71, i64 0
  %73 = load ptr, ptr %72, align 8, !tbaa !50
  store ptr %73, ptr %12, align 8, !tbaa !51
  call void @llvm.lifetime.start.p0(i64 4, ptr %13) #6
  store i32 0, ptr %13, align 4, !tbaa !41
  br label %74

74:                                               ; preds = %103, %68
  %75 = load i32, ptr %13, align 4, !tbaa !41
  %76 = load ptr, ptr %4, align 8, !tbaa !31
  %77 = getelementptr inbounds nuw %struct.AVFrame, ptr %76, i32 0, i32 5
  %78 = load i32, ptr %77, align 8, !tbaa !53
  %79 = icmp slt i32 %75, %78
  br i1 %79, label %81, label %80

80:                                               ; preds = %74
  store i32 9, ptr %8, align 4
  call void @llvm.lifetime.end.p0(i64 4, ptr %13) #6
  br label %106

81:                                               ; preds = %74
  call void @llvm.lifetime.start.p0(i64 4, ptr %14) #6
  store i32 0, ptr %14, align 4, !tbaa !41
  br label %82

82:                                               ; preds = %97, %81
  %83 = load i32, ptr %14, align 4, !tbaa !41
  %84 = load i32, ptr %6, align 4, !tbaa !41
  %85 = icmp slt i32 %83, %84
  br i1 %85, label %87, label %86

86:                                               ; preds = %82
  store i32 12, ptr %8, align 4
  call void @llvm.lifetime.end.p0(i64 4, ptr %14) #6
  br label %102

87:                                               ; preds = %82
  %88 = load ptr, ptr %5, align 8, !tbaa !22
  %89 = load ptr, ptr %5, align 8, !tbaa !22
  %90 = getelementptr inbounds nuw %struct.DRMeterContext, ptr %89, i32 0, i32 1
  %91 = load ptr, ptr %90, align 8, !tbaa !43
  %92 = load i32, ptr %14, align 4, !tbaa !41
  %93 = sext i32 %92 to i64
  %94 = getelementptr inbounds %struct.ChannelStats, ptr %91, i64 %93
  %95 = load ptr, ptr %12, align 8, !tbaa !51
  %96 = load float, ptr %95, align 4, !tbaa !54
  call void @update_stat(ptr noundef %88, ptr noundef %94, float noundef %96)
  br label %97

97:                                               ; preds = %87
  %98 = load i32, ptr %14, align 4, !tbaa !41
  %99 = add nsw i32 %98, 1
  store i32 %99, ptr %14, align 4, !tbaa !41
  %100 = load ptr, ptr %12, align 8, !tbaa !51
  %101 = getelementptr inbounds nuw float, ptr %100, i32 1
  store ptr %101, ptr %12, align 8, !tbaa !51
  br label %82, !llvm.loop !59

102:                                              ; preds = %86
  br label %103

103:                                              ; preds = %102
  %104 = load i32, ptr %13, align 4, !tbaa !41
  %105 = add nsw i32 %104, 1
  store i32 %105, ptr %13, align 4, !tbaa !41
  br label %74, !llvm.loop !60

106:                                              ; preds = %80
  call void @llvm.lifetime.end.p0(i64 8, ptr %12) #6
  br label %107

107:                                              ; preds = %2, %106, %67
  %108 = load ptr, ptr %3, align 8, !tbaa !29
  %109 = getelementptr inbounds nuw %struct.AVFilterLink, ptr %108, i32 0, i32 2
  %110 = load ptr, ptr %109, align 8, !tbaa !33
  %111 = getelementptr inbounds nuw %struct.AVFilterContext, ptr %110, i32 0, i32 7
  %112 = load ptr, ptr %111, align 8, !tbaa !61
  %113 = getelementptr inbounds ptr, ptr %112, i64 0
  %114 = load ptr, ptr %113, align 8, !tbaa !29
  %115 = load ptr, ptr %4, align 8, !tbaa !31
  %116 = call i32 @ff_filter_frame(ptr noundef %114, ptr noundef %115)
  store i32 1, ptr %8, align 4
  call void @llvm.lifetime.end.p0(i64 4, ptr %6) #6
  call void @llvm.lifetime.end.p0(i64 8, ptr %5) #6
  ret i32 %116
}