; Function Attrs: nounwind uwtable
define internal i32 @filter_frame(ptr noundef readonly captures(none) %0, ptr noundef %1) #1 {
  %3 = getelementptr inbounds nuw i8, ptr %0, i64 16
  %4 = load ptr, ptr %3, align 8, !tbaa !37
  %5 = getelementptr inbounds nuw i8, ptr %4, i64 72
  %6 = load ptr, ptr %5, align 8, !tbaa !4
  %7 = getelementptr inbounds nuw i8, ptr %6, i64 16
  %8 = load i32, ptr %7, align 8, !tbaa !20
  %9 = getelementptr inbounds nuw i8, ptr %0, i64 36
  %10 = load i32, ptr %9, align 4, !tbaa !46
  switch i32 %10, label %.loopexit [
    i32 8, label %.preheader
    i32 3, label %76
  ]

.preheader:                                       ; preds = %2
  %11 = icmp sgt i32 %8, 0
  br i1 %11, label %.lr.ph49, label %.loopexit

.lr.ph49:                                         ; preds = %.preheader
  %12 = getelementptr inbounds nuw i8, ptr %6, i64 8
  %13 = load ptr, ptr %12, align 8, !tbaa !25
  %14 = getelementptr inbounds nuw i8, ptr %1, i64 96
  %15 = load ptr, ptr %14, align 8, !tbaa !47
  %16 = getelementptr inbounds nuw i8, ptr %1, i64 112
  %17 = getelementptr i8, ptr %6, i64 24
  %18 = load i32, ptr %16, align 8, !tbaa !52
  %19 = icmp sgt i32 %18, 0
  br i1 %19, label %.lr.ph49.split.preheader, label %.loopexit

.lr.ph49.split.preheader:                         ; preds = %.lr.ph49
  %wide.trip.count58 = zext nneg i32 %8 to i64
  br label %.lr.ph49.split

.lr.ph49.split:                                   ; preds = %.lr.ph49.split.preheader, %31
  %20 = phi i32 [ %18, %.lr.ph49.split.preheader ], [ %32, %31 ]
  %21 = phi i32 [ %18, %.lr.ph49.split.preheader ], [ %33, %31 ]
  %indvars.iv55 = phi i64 [ 0, %.lr.ph49.split.preheader ], [ %indvars.iv.next56, %31 ]
  %22 = getelementptr inbounds nuw %struct.ChannelStats, ptr %13, i64 %indvars.iv55
  %23 = icmp sgt i32 %21, 0
  br i1 %23, label %.lr.ph, label %31

.lr.ph:                                           ; preds = %.lr.ph49.split
  %24 = getelementptr inbounds nuw ptr, ptr %15, i64 %indvars.iv55
  %25 = load ptr, ptr %24, align 8, !tbaa !53
  %.val = load i64, ptr %17, align 8, !tbaa !54
  %26 = getelementptr inbounds nuw i8, ptr %22, i64 16
  %27 = getelementptr inbounds nuw i8, ptr %22, i64 20
  %28 = getelementptr inbounds nuw i8, ptr %22, i64 131100
  %29 = getelementptr inbounds nuw i8, ptr %22, i64 24
  %30 = getelementptr inbounds nuw i8, ptr %22, i64 8
  %.promoted = load float, ptr %26, align 8, !tbaa !31
  %.promoted46 = load float, ptr %27, align 4, !tbaa !30
  %.promoted47 = load i64, ptr %22, align 8, !tbaa !29
  br label %34

._crit_edge:                                      ; preds = %update_stat.exit
  store i64 %70, ptr %22, align 8, !tbaa !29
  br label %31

31:                                               ; preds = %._crit_edge, %.lr.ph49.split
  %32 = phi i32 [ %69, %._crit_edge ], [ %20, %.lr.ph49.split ]
  %33 = phi i32 [ %69, %._crit_edge ], [ %21, %.lr.ph49.split ]
  %indvars.iv.next56 = add nuw nsw i64 %indvars.iv55, 1
  %exitcond59.not = icmp eq i64 %indvars.iv.next56, %wide.trip.count58
  br i1 %exitcond59.not, label %.loopexit, label %.lr.ph49.split, !llvm.loop !55

34:                                               ; preds = %.lr.ph, %update_stat.exit
  %35 = phi i32 [ %20, %.lr.ph ], [ %69, %update_stat.exit ]
  %36 = phi i64 [ %.promoted47, %.lr.ph ], [ %70, %update_stat.exit ]
  %37 = phi float [ %.promoted46, %.lr.ph ], [ %71, %update_stat.exit ]
  %38 = phi float [ %.promoted, %.lr.ph ], [ %72, %update_stat.exit ]
  %.03245 = phi i32 [ 0, %.lr.ph ], [ %73, %update_stat.exit ]
  %.03344 = phi ptr [ %25, %.lr.ph ], [ %74, %update_stat.exit ]
  %39 = load float, ptr %.03344, align 4, !tbaa !57
  %40 = tail call nsz float @llvm.fabs.f32(float %39)
  %41 = tail call nsz float @llvm.maxnum.f32(float %40, float %38)
  store float %41, ptr %26, align 8, !tbaa !31
  %42 = tail call nsz float @llvm.fmuladd.f32(float %39, float %39, float %37)
  store float %42, ptr %27, align 4, !tbaa !30
  %43 = add i64 %36, 1
  %.not.i = icmp ult i64 %43, %.val
  br i1 %.not.i, label %update_stat.exit, label %44

44:                                               ; preds = %34
  %45 = fmul nsz float %42, 2.000000e+00
  %46 = uitofp i64 %43 to float
  %47 = fdiv nsz float %45, %46
  %48 = tail call nsz float @llvm.sqrt.f32(float %47)
  %49 = fmul nsz float %48, 3.276800e+04
  %50 = tail call i64 @llvm.lrint.i64.f32(float %49)
  %51 = trunc i64 %50 to i32
  %52 = tail call i32 @llvm.smax.i32(i32 %51, i32 0)
  %53 = tail call i32 @llvm.umin.i32(i32 %52, i32 32768)
  %54 = fmul nsz float %41, 3.276800e+04
  %55 = tail call i64 @llvm.lrint.i64.f32(float %54)
  %56 = trunc i64 %55 to i32
  %57 = tail call i32 @llvm.smax.i32(i32 %56, i32 0)
  %58 = tail call i32 @llvm.umin.i32(i32 %57, i32 32768)
  %59 = zext nneg i32 %53 to i64
  %60 = getelementptr inbounds nuw [32769 x i32], ptr %28, i64 0, i64 %59
  %61 = load i32, ptr %60, align 4, !tbaa !32
  %62 = add i32 %61, 1
  store i32 %62, ptr %60, align 4, !tbaa !32
  %63 = zext nneg i32 %58 to i64
  %64 = getelementptr inbounds nuw [32769 x i32], ptr %29, i64 0, i64 %63
  %65 = load i32, ptr %64, align 4, !tbaa !32
  %66 = add i32 %65, 1
  store i32 %66, ptr %64, align 4, !tbaa !32
  store float 0.000000e+00, ptr %26, align 8, !tbaa !31
  store float 0.000000e+00, ptr %27, align 4, !tbaa !30
  %67 = load i64, ptr %30, align 8, !tbaa !26
  %68 = add i64 %67, 1
  store i64 %68, ptr %30, align 8, !tbaa !26
  %.pre = load i32, ptr %16, align 8, !tbaa !52
  br label %update_stat.exit

update_stat.exit:                                 ; preds = %34, %44
  %69 = phi i32 [ %35, %34 ], [ %.pre, %44 ]
  %70 = phi i64 [ %43, %34 ], [ 0, %44 ]
  %71 = phi float [ %42, %34 ], [ 0.000000e+00, %44 ]
  %72 = phi float [ %41, %34 ], [ 0.000000e+00, %44 ]
  %73 = add nuw nsw i32 %.03245, 1
  %74 = getelementptr inbounds nuw i8, ptr %.03344, i64 4
  %75 = icmp slt i32 %73, %69
  br i1 %75, label %34, label %._crit_edge, !llvm.loop !58

76:                                               ; preds = %2
  %77 = getelementptr inbounds nuw i8, ptr %1, i64 112
  %78 = load i32, ptr %77, align 8, !tbaa !52
  %79 = icmp sgt i32 %78, 0
  %80 = icmp sgt i32 %8, 0
  %or.cond = select i1 %79, i1 %80, i1 false
  br i1 %or.cond, label %.preheader38.lr.ph.split.us, label %.loopexit

.preheader38.lr.ph.split.us:                      ; preds = %76
  %81 = getelementptr inbounds nuw i8, ptr %1, i64 96
  %82 = load ptr, ptr %81, align 8, !tbaa !47
  %83 = load ptr, ptr %82, align 8, !tbaa !53
  %84 = getelementptr i8, ptr %6, i64 24
  %85 = getelementptr inbounds nuw i8, ptr %6, i64 8
  %86 = load ptr, ptr %85, align 8, !tbaa !25
  %.val35.us = load i64, ptr %84, align 8, !tbaa !54
  %wide.trip.count = zext nneg i32 %8 to i64
  br label %.preheader38.us

.preheader38.us:                                  ; preds = %._crit_edge.us, %.preheader38.lr.ph.split.us
  %.03043.us = phi i32 [ 0, %.preheader38.lr.ph.split.us ], [ %128, %._crit_edge.us ]
  %.03142.us = phi ptr [ %83, %.preheader38.lr.ph.split.us ], [ %127, %._crit_edge.us ]
  br label %87

87:                                               ; preds = %.preheader38.us, %update_stat.exit37.us
  %indvars.iv = phi i64 [ 0, %.preheader38.us ], [ %indvars.iv.next, %update_stat.exit37.us ]
  %.140.us = phi ptr [ %.03142.us, %.preheader38.us ], [ %127, %update_stat.exit37.us ]
  %88 = getelementptr inbounds nuw %struct.ChannelStats, ptr %86, i64 %indvars.iv
  %89 = load float, ptr %.140.us, align 4, !tbaa !57
  %90 = tail call nsz float @llvm.fabs.f32(float %89)
  %91 = getelementptr inbounds nuw i8, ptr %88, i64 16
  %92 = load float, ptr %91, align 8, !tbaa !31
  %93 = tail call nsz float @llvm.maxnum.f32(float %90, float %92)
  store float %93, ptr %91, align 8, !tbaa !31
  %94 = getelementptr inbounds nuw i8, ptr %88, i64 20
  %95 = load float, ptr %94, align 4, !tbaa !30
  %96 = tail call nsz float @llvm.fmuladd.f32(float %89, float %89, float %95)
  store float %96, ptr %94, align 4, !tbaa !30
  %97 = load i64, ptr %88, align 8, !tbaa !29
  %98 = add i64 %97, 1
  store i64 %98, ptr %88, align 8, !tbaa !29
  %.not.i36.us = icmp ult i64 %98, %.val35.us
  br i1 %.not.i36.us, label %update_stat.exit37.us, label %99

99:                                               ; preds = %87
  %100 = fmul nsz float %96, 2.000000e+00
  %101 = uitofp i64 %98 to float
  %102 = fdiv nsz float %100, %101
  %103 = tail call nsz float @llvm.sqrt.f32(float %102)
  %104 = fmul nsz float %103, 3.276800e+04
  %105 = tail call i64 @llvm.lrint.i64.f32(float %104)
  %106 = trunc i64 %105 to i32
  %107 = tail call i32 @llvm.smax.i32(i32 %106, i32 0)
  %108 = tail call i32 @llvm.umin.i32(i32 %107, i32 32768)
  %109 = fmul nsz float %93, 3.276800e+04
  %110 = tail call i64 @llvm.lrint.i64.f32(float %109)
  %111 = trunc i64 %110 to i32
  %112 = tail call i32 @llvm.smax.i32(i32 %111, i32 0)
  %113 = tail call i32 @llvm.umin.i32(i32 %112, i32 32768)
  %114 = getelementptr inbounds nuw i8, ptr %88, i64 131100
  %115 = zext nneg i32 %108 to i64
  %116 = getelementptr inbounds nuw [32769 x i32], ptr %114, i64 0, i64 %115
  %117 = load i32, ptr %116, align 4, !tbaa !32
  %118 = add i32 %117, 1
  store i32 %118, ptr %116, align 4, !tbaa !32
  %119 = getelementptr inbounds nuw i8, ptr %88, i64 24
  %120 = zext nneg i32 %113 to i64
  %121 = getelementptr inbounds nuw [32769 x i32], ptr %119, i64 0, i64 %120
  %122 = load i32, ptr %121, align 4, !tbaa !32
  %123 = add i32 %122, 1
  store i32 %123, ptr %121, align 4, !tbaa !32
  store float 0.000000e+00, ptr %91, align 8, !tbaa !31
  store float 0.000000e+00, ptr %94, align 4, !tbaa !30
  store i64 0, ptr %88, align 8, !tbaa !29
  %124 = getelementptr inbounds nuw i8, ptr %88, i64 8
  %125 = load i64, ptr %124, align 8, !tbaa !26
  %126 = add i64 %125, 1
  store i64 %126, ptr %124, align 8, !tbaa !26
  br label %update_stat.exit37.us

update_stat.exit37.us:                            ; preds = %99, %87
  %indvars.iv.next = add nuw nsw i64 %indvars.iv, 1
  %127 = getelementptr inbounds nuw i8, ptr %.140.us, i64 4
  %exitcond.not = icmp eq i64 %indvars.iv.next, %wide.trip.count
  br i1 %exitcond.not, label %._crit_edge.us, label %87, !llvm.loop !59

._crit_edge.us:                                   ; preds = %update_stat.exit37.us
  %128 = add nuw nsw i32 %.03043.us, 1
  %129 = load i32, ptr %77, align 8, !tbaa !52
  %130 = icmp slt i32 %128, %129
  br i1 %130, label %.preheader38.us, label %.loopexit, !llvm.loop !60

.loopexit:                                        ; preds = %._crit_edge.us, %31, %.lr.ph49, %76, %.preheader, %2
  %131 = getelementptr inbounds nuw i8, ptr %4, i64 56
  %132 = load ptr, ptr %131, align 8, !tbaa !61
  %133 = load ptr, ptr %132, align 8, !tbaa !62
  %134 = tail call i32 @ff_filter_frame(ptr noundef %133, ptr noundef %1) #5
  ret i32 %134
}